; Function Attrs: nounwind uwtable
define dso_local void @logicalrep_write_commit_prepared(ptr noundef %0, ptr noundef readonly captures(none) %1, i64 noundef %2) local_unnamed_addr #0 {
  tail call void @enlargeStringInfo(ptr noundef %0, i32 noundef 1) #8
  tail call void @llvm.experimental.noalias.scope.decl(metadata !64)
  %4 = load ptr, ptr %0, align 8, !alias.scope !64
  %5 = getelementptr inbounds nuw i8, ptr %0, i64 8
  %6 = load i32, ptr %5, align 8, !alias.scope !64
  %7 = sext i32 %6 to i64
  %8 = getelementptr inbounds i8, ptr %4, i64 %7
  store i8 75, ptr %8, align 1, !noalias !64
  %9 = add i32 %6, 1
  store i32 %9, ptr %5, align 8, !alias.scope !64
  tail call void @enlargeStringInfo(ptr noundef nonnull %0, i32 noundef 1) #8
  tail call void @llvm.experimental.noalias.scope.decl(metadata !67)
  %10 = load ptr, ptr %0, align 8, !alias.scope !67
  %11 = load i32, ptr %5, align 8, !alias.scope !67
  %12 = sext i32 %11 to i64
  %13 = getelementptr inbounds i8, ptr %10, i64 %12
  store i8 0, ptr %13, align 1, !noalias !67
  %14 = add i32 %11, 1
  store i32 %14, ptr %5, align 8, !alias.scope !67
  tail call void @enlargeStringInfo(ptr noundef nonnull %0, i32 noundef 8) #8
  tail call void @llvm.experimental.noalias.scope.decl(metadata !70)
  %15 = tail call i64 @llvm.bswap.i64(i64 %2)
  %16 = load ptr, ptr %0, align 8, !alias.scope !70
  %17 = load i32, ptr %5, align 8, !alias.scope !70
  %18 = sext i32 %17 to i64
  %19 = getelementptr inbounds i8, ptr %16, i64 %18
  store i64 %15, ptr %19, align 1, !noalias !70
  %20 = add i32 %17, 8
  store i32 %20, ptr %5, align 8, !alias.scope !70
  %21 = getelementptr inbounds nuw i8, ptr %1, i64 40
  %22 = load i64, ptr %21, align 8
  tail call void @enlargeStringInfo(ptr noundef nonnull %0, i32 noundef 8) #8
  tail call void @llvm.experimental.noalias.scope.decl(metadata !73)
  %23 = tail call i64 @llvm.bswap.i64(i64 %22)
  %24 = load ptr, ptr %0, align 8, !alias.scope !73
  %25 = load i32, ptr %5, align 8, !alias.scope !73
  %26 = sext i32 %25 to i64
  %27 = getelementptr inbounds i8, ptr %24, i64 %26
  store i64 %23, ptr %27, align 1, !noalias !73
  %28 = add i32 %25, 8
  store i32 %28, ptr %5, align 8, !alias.scope !73
  %29 = getelementptr inbounds nuw i8, ptr %1, i64 80
  %30 = load i64, ptr %29, align 8
  tail call void @enlargeStringInfo(ptr noundef nonnull %0, i32 noundef 8) #8
  tail call void @llvm.experimental.noalias.scope.decl(metadata !76)
  %31 = tail call i64 @llvm.bswap.i64(i64 %30)
  %32 = load ptr, ptr %0, align 8, !alias.scope !76
  %33 = load i32, ptr %5, align 8, !alias.scope !76
  %34 = sext i32 %33 to i64
  %35 = getelementptr inbounds i8, ptr %32, i64 %34
  store i64 %31, ptr %35, align 1, !noalias !76
  %36 = add i32 %33, 8
  store i32 %36, ptr %5, align 8, !alias.scope !76
  %37 = getelementptr inbounds nuw i8, ptr %1, i64 4
  %38 = load i32, ptr %37, align 4
  tail call void @enlargeStringInfo(ptr noundef nonnull %0, i32 noundef 4) #8
  tail call void @llvm.experimental.noalias.scope.decl(metadata !79)
  %39 = tail call i32 @llvm.bswap.i32(i32 %38)
  %40 = load ptr, ptr %0, align 8, !alias.scope !79
  %41 = load i32, ptr %5, align 8, !alias.scope !79
  %42 = sext i32 %41 to i64
  %43 = getelementptr inbounds i8, ptr %40, i64 %42
  store i32 %39, ptr %43, align 1, !noalias !79
  %44 = add i32 %41, 4
  store i32 %44, ptr %5, align 8, !alias.scope !79
  %45 = getelementptr inbounds nuw i8, ptr %1, i64 16
  %46 = load ptr, ptr %45, align 8
  tail call void @pq_sendstring(ptr noundef nonnull %0, ptr noundef %46) #8
  ret void
}